; Function Attrs: mustprogress uwtable
define void @_Z26gmx_pme_send_resetcountersPK9t_commrecl(ptr nocapture noundef readonly %0, i64 noundef %1) local_unnamed_addr #0 {
  %3 = alloca %struct.gmx_pme_comm_n_box_t, align 8
  %4 = getelementptr inbounds i8, ptr %0, i64 96
  %5 = load ptr, ptr %4, align 8
  %6 = getelementptr inbounds i8, ptr %5, i64 52
  %7 = load i8, ptr %6, align 4
  %8 = trunc i8 %7 to i1
  br i1 %8, label %9, label %18

9:                                                ; preds = %2
  %10 = getelementptr inbounds i8, ptr %3, i64 56
  store i32 4096, ptr %10, align 8
  %11 = getelementptr inbounds i8, ptr %3, i64 64
  store i64 %1, ptr %11, align 8
  %12 = load ptr, ptr @TMPI_BYTE, align 8
  %13 = getelementptr inbounds i8, ptr %5, i64 48
  %14 = load i32, ptr %13, align 8
  %15 = getelementptr inbounds i8, ptr %0, i64 16
  %16 = load ptr, ptr %15, align 8
  %17 = call noundef i32 @_Z9tMPI_SendPKviP14tmpi_datatype_iiP10tmpi_comm_(ptr noundef nonnull %3, i32 noundef 96, ptr noundef %12, i32 noundef %14, i32 noundef 9, ptr noundef %16)
  br label %18

18:                                               ; preds = %9, %2
  ret void
}